target datalayout = "e-m:e-p270:32:32-p271:32:32-p272:64:64-i64:64-i128:128-f80:128-n8:16:32:64-S128"
target triple = "x86_64-pc-linux-gnu"

%struct.reassembly_table = type { ptr, ptr, ptr, ptr, ptr }
%struct.reassembly_table_functions = type { ptr, ptr, ptr, ptr, ptr, ptr }

@.str.588 = private unnamed_addr constant [10 x i8] c"USB Audio\00", align 1
@.str.589 = private unnamed_addr constant [9 x i8] c"USBAUDIO\00", align 1
@.str.590 = private unnamed_addr constant [9 x i8] c"usbaudio\00", align 1
@proto_usb_audio = internal global i32 0, align 4
@midi_data_reassembly_table = internal global %struct.reassembly_table zeroinitializer, align 8
@addresses_reassembly_table_functions = external constant %struct.reassembly_table_functions, align 8
@usb_audio_bulk_handle = internal global ptr null, align 8
@.str.591 = private unnamed_addr constant [14 x i8] c"usbaudio.bulk\00", align 1
@usb_audio_descr_handle = internal global ptr null, align 8
@.str.592 = private unnamed_addr constant [17 x i8] c"usbaudio.control\00", align 1
@usb_audio_control_handle = internal global ptr null, align 8

; Function Attrs: null_pointer_is_valid sspstrong uwtable
define hidden void @proto_register_usb_audio() #1 {
  %1 = alloca ptr, align 8
  call void @llvm.lifetime.start.p0(i64 8, ptr %1) #11
  %2 = call i32 @proto_register_protocol(ptr noundef @.str.588, ptr noundef @.str.589, ptr noundef @.str.590)
  store i32 %2, ptr @proto_usb_audio, align 4
  %3 = load i32, ptr @proto_usb_audio, align 4
  call void @proto_register_field_array(i32 noundef %3, ptr noundef @proto_register_usb_audio.hf, i32 noundef 350)
  call void @proto_register_subtree_array(ptr noundef @proto_register_usb_audio.usb_audio_ett, i32 noundef 30)
  %4 = load i32, ptr @proto_usb_audio, align 4
  %5 = call ptr @expert_register_protocol(i32 noundef %4)
  store ptr %5, ptr %1, align 8
  %6 = load ptr, ptr %1, align 8
  call void @expert_register_field_array(ptr noundef %6, ptr noundef @proto_register_usb_audio.ei, i32 noundef 5)
  call void @reassembly_table_register(ptr noundef @midi_data_reassembly_table, ptr noundef @addresses_reassembly_table_functions)
  %7 = load i32, ptr @proto_usb_audio, align 4
  %8 = call ptr @register_dissector(ptr noundef @.str.590, ptr noundef @dissect_usb_audio_bulk, i32 noundef %7)
  store ptr %8, ptr @usb_audio_bulk_handle, align 8
  %9 = load i32, ptr @proto_usb_audio, align 4
  %10 = call ptr @register_dissector(ptr noundef @.str.591, ptr noundef @dissect_usb_audio_descriptor, i32 noundef %9)
  store ptr %10, ptr @usb_audio_descr_handle, align 8
  %11 = load i32, ptr @proto_usb_audio, align 4
  %12 = call ptr @register_dissector(ptr noundef @.str.592, ptr noundef @dissect_usb_audio_control, i32 noundef %11)
  store ptr %12, ptr @usb_audio_control_handle, align 8
  call void @llvm.lifetime.end.p0(i64 8, ptr %1) #11
  ret void
}