; Function Attrs: null_pointer_is_valid sspstrong uwtable
define hidden void @proto_register_usb_audio() local_unnamed_addr #1 {
  %1 = tail call i32 @proto_register_protocol(ptr noundef nonnull @.str.588, ptr noundef nonnull @.str.589, ptr noundef nonnull @.str.590)
  store i32 %1, ptr @proto_usb_audio, align 4
  tail call void @proto_register_field_array(i32 noundef %1, ptr noundef nonnull @proto_register_usb_audio.hf, i32 noundef 350)
  tail call void @proto_register_subtree_array(ptr noundef nonnull @proto_register_usb_audio.usb_audio_ett, i32 noundef 30)
  %2 = load i32, ptr @proto_usb_audio, align 4
  %3 = tail call ptr @expert_register_protocol(i32 noundef %2)
  tail call void @expert_register_field_array(ptr noundef %3, ptr noundef nonnull @proto_register_usb_audio.ei, i32 noundef 5)
  tail call void @reassembly_table_register(ptr noundef nonnull @midi_data_reassembly_table, ptr noundef nonnull @addresses_reassembly_table_functions)
  %4 = load i32, ptr @proto_usb_audio, align 4
  %5 = tail call ptr @register_dissector(ptr noundef nonnull @.str.590, ptr noundef nonnull @dissect_usb_audio_bulk, i32 noundef %4)
  store ptr %5, ptr @usb_audio_bulk_handle, align 8
  %6 = load i32, ptr @proto_usb_audio, align 4
  %7 = tail call ptr @register_dissector(ptr noundef nonnull @.str.591, ptr noundef nonnull @dissect_usb_audio_descriptor, i32 noundef %6)
  store ptr %7, ptr @usb_audio_descr_handle, align 8
  %8 = load i32, ptr @proto_usb_audio, align 4
  %9 = tail call ptr @register_dissector(ptr noundef nonnull @.str.592, ptr noundef nonnull @dissect_usb_audio_control, i32 noundef %8)
  store ptr %9, ptr @usb_audio_control_handle, align 8
  ret void
}